; Function Attrs: mustprogress uwtable
define void @_ZN6icu_7712UnifiedCache17setEvictionPolicyEiiR10UErrorCode(ptr noundef nonnull writeonly align 8 captures(none) dereferenceable(56) %0, i32 noundef %1, i32 noundef %2, ptr noundef nonnull align 4 captures(none) dereferenceable(4) %3) local_unnamed_addr #0 align 2 personality ptr @__gxx_personality_v0 {
  %5 = load i32, ptr %3, align 4, !tbaa !6
  %6 = icmp slt i32 %5, 1
  br i1 %6, label %7, label %17

7:                                                ; preds = %4
  %8 = or i32 %2, %1
  %or.cond.not = icmp sgt i32 %8, -1
  br i1 %or.cond.not, label %10, label %9

9:                                                ; preds = %7
  store i32 1, ptr %3, align 4, !tbaa !6
  br label %17

10:                                               ; preds = %7
  %11 = load ptr, ptr @_ZL11gCacheMutex, align 8, !tbaa !9
  %12 = tail call noundef i32 @pthread_mutex_lock(ptr noundef nonnull align 8 dereferenceable(40) %11) #16
  %.not.i.i = icmp eq i32 %12, 0
  br i1 %.not.i.i, label %_ZNSt10lock_guardISt5mutexEC2ERS0_.exit, label %13

13:                                               ; preds = %10
  tail call void @_ZSt20__throw_system_errori(i32 noundef %12) #18
  unreachable

_ZNSt10lock_guardISt5mutexEC2ERS0_.exit:          ; preds = %10
  %14 = getelementptr inbounds nuw i8, ptr %0, i64 28
  store i32 %1, ptr %14, align 4, !tbaa !31
  %15 = getelementptr inbounds nuw i8, ptr %0, i64 32
  store i32 %2, ptr %15, align 8, !tbaa !32
  %16 = tail call noundef i32 @pthread_mutex_unlock(ptr noundef nonnull align 8 dereferenceable(40) %11) #16
  br label %17

17:                                               ; preds = %4, %_ZNSt10lock_guardISt5mutexEC2ERS0_.exit, %9
  ret void
}